; Function Attrs: mustprogress nofree nounwind willreturn memory(argmem: readwrite) uwtable
define void @_ZN5boost10test_tools9tt_detail10equal_implEPKcS3_(ptr dead_on_unwind noalias nocapture writable writeonly sret(%"class.boost::test_tools::assertion_result") align 8 %0, ptr noundef readonly %1, ptr noundef readonly %2) local_unnamed_addr #11 {
  %4 = icmp ne ptr %1, null
  %5 = icmp ne ptr %2, null
  %or.cond = and i1 %4, %5
  br i1 %or.cond, label %6, label %9

6:                                                ; preds = %3
  %7 = tail call i32 @strcmp(ptr noundef nonnull dereferenceable(1) %1, ptr noundef nonnull dereferenceable(1) %2) #29
  %8 = icmp eq i32 %7, 0
  br label %11

9:                                                ; preds = %3
  %10 = icmp eq ptr %1, %2
  br label %11

11:                                               ; preds = %9, %6
  %12 = phi i1 [ %8, %6 ], [ %10, %9 ]
  %13 = zext i1 %12 to i8
  store i8 %13, ptr %0, align 8, !tbaa !23
  %14 = getelementptr inbounds nuw i8, ptr %0, i64 8
  tail call void @llvm.memset.p0.i64(ptr noundef nonnull align 8 dereferenceable(16) %14, i8 0, i64 16, i1 false)
  ret void
}